target datalayout = "e-m:e-p270:32:32-p271:32:32-p272:64:64-i64:64-i128:128-f80:128-n8:16:32:64-S128"
target triple = "x86_64-unknown-linux-gnu"

%"class.icu_75::UObject" = type { ptr }
%"class.icu_75::UCharsTrieBuilder::UCTLinearMatchNode" = type { %"class.icu_75::StringTrieBuilder::LinearMatchNode", ptr }
%"class.icu_75::StringTrieBuilder::LinearMatchNode" = type { %"class.icu_75::StringTrieBuilder::ValueNode", i32, ptr }
%"class.icu_75::StringTrieBuilder::ValueNode" = type { %"class.icu_75::StringTrieBuilder::Node", i8, i32 }
%"class.icu_75::StringTrieBuilder::Node" = type { %"class.icu_75::UObject", i32, i32 }

; Function Attrs: mustprogress uwtable
define void @_ZN6icu_7517UCharsTrieBuilder18UCTLinearMatchNode5writeERNS_17StringTrieBuilderE(ptr noundef nonnull align 8 dereferenceable(48) %this, ptr noundef nonnull align 8 dereferenceable(16) %builder) unnamed_addr #0 align 2 {
entry:
  %this.addr = alloca ptr, align 8
  %builder.addr = alloca ptr, align 8
  %b = alloca ptr, align 8
  store ptr %this, ptr %this.addr, align 8
  store ptr %builder, ptr %builder.addr, align 8
  %this1 = load ptr, ptr %this.addr, align 8
  %0 = load ptr, ptr %builder.addr, align 8
  store ptr %0, ptr %b, align 8
  %next = getelementptr inbounds %"class.icu_75::StringTrieBuilder::LinearMatchNode", ptr %this1, i32 0, i32 2
  %1 = load ptr, ptr %next, align 8
  %2 = load ptr, ptr %builder.addr, align 8
  %vtable = load ptr, ptr %1, align 8
  %vfn = getelementptr inbounds ptr, ptr %vtable, i64 5
  %3 = load ptr, ptr %vfn, align 8
  call void %3(ptr noundef nonnull align 8 dereferenceable(16) %1, ptr noundef nonnull align 8 dereferenceable(16) %2)
  %4 = load ptr, ptr %b, align 8
  %s = getelementptr inbounds %"class.icu_75::UCharsTrieBuilder::UCTLinearMatchNode", ptr %this1, i32 0, i32 1
  %5 = load ptr, ptr %s, align 8
  %length = getelementptr inbounds %"class.icu_75::StringTrieBuilder::LinearMatchNode", ptr %this1, i32 0, i32 1
  %6 = load i32, ptr %length, align 8
  %call = call noundef i32 @_ZN6icu_7517UCharsTrieBuilder5writeEPKDsi(ptr noundef nonnull align 8 dereferenceable(112) %4, ptr noundef %5, i32 noundef %6)
  %7 = load ptr, ptr %b, align 8
  %hasValue = getelementptr inbounds %"class.icu_75::StringTrieBuilder::ValueNode", ptr %this1, i32 0, i32 1
  %8 = load i8, ptr %hasValue, align 8
  %value = getelementptr inbounds %"class.icu_75::StringTrieBuilder::ValueNode", ptr %this1, i32 0, i32 2
  %9 = load i32, ptr %value, align 4
  %10 = load ptr, ptr %b, align 8
  %vtable2 = load ptr, ptr %10, align 8
  %vfn3 = getelementptr inbounds ptr, ptr %vtable2, i64 12
  %11 = load ptr, ptr %vfn3, align 8
  %call4 = call noundef i32 %11(ptr noundef nonnull align 8 dereferenceable(112) %10)
  %length5 = getelementptr inbounds %"class.icu_75::StringTrieBuilder::LinearMatchNode", ptr %this1, i32 0, i32 1
  %12 = load i32, ptr %length5, align 8
  %add = add nsw i32 %call4, %12
  %sub = sub nsw i32 %add, 1
  %vtable6 = load ptr, ptr %7, align 8
  %vfn7 = getelementptr inbounds ptr, ptr %vtable6, i64 18
  %13 = load ptr, ptr %vfn7, align 8
  %call8 = call noundef i32 %13(ptr noundef nonnull align 8 dereferenceable(112) %7, i8 noundef signext %8, i32 noundef %9, i32 noundef %sub)
  %offset = getelementptr inbounds %"class.icu_75::StringTrieBuilder::Node", ptr %this1, i32 0, i32 2
  store i32 %call8, ptr %offset, align 4
  ret void
}