; Function Attrs: mustprogress uwtable
define void @_ZN6icu_7517UCharsTrieBuilder18UCTLinearMatchNode5writeERNS_17StringTrieBuilderE(ptr nocapture noundef nonnull align 8 dereferenceable(48) %this, ptr noundef nonnull align 8 dereferenceable(16) %builder) unnamed_addr #0 align 2 {
entry:
  %next = getelementptr inbounds i8, ptr %this, i64 32
  %0 = load ptr, ptr %next, align 8
  %vtable = load ptr, ptr %0, align 8
  %vfn = getelementptr inbounds i8, ptr %vtable, i64 40
  %1 = load ptr, ptr %vfn, align 8
  tail call void %1(ptr noundef nonnull align 8 dereferenceable(16) %0, ptr noundef nonnull align 8 dereferenceable(16) %builder)
  %s = getelementptr inbounds i8, ptr %this, i64 40
  %2 = load ptr, ptr %s, align 8
  %length = getelementptr inbounds i8, ptr %this, i64 24
  %3 = load i32, ptr %length, align 8
  %call = tail call noundef i32 @_ZN6icu_7517UCharsTrieBuilder5writeEPKDsi(ptr noundef nonnull align 8 dereferenceable(112) %builder, ptr noundef %2, i32 noundef %3)
  %hasValue = getelementptr inbounds i8, ptr %this, i64 16
  %4 = load i8, ptr %hasValue, align 8
  %value = getelementptr inbounds i8, ptr %this, i64 20
  %5 = load i32, ptr %value, align 4
  %vtable2 = load ptr, ptr %builder, align 8
  %vfn3 = getelementptr inbounds i8, ptr %vtable2, i64 96
  %6 = load ptr, ptr %vfn3, align 8
  %call4 = tail call noundef i32 %6(ptr noundef nonnull align 8 dereferenceable(112) %builder)
  %7 = load i32, ptr %length, align 8
  %add = add i32 %call4, -1
  %sub = add i32 %add, %7
  %vtable6 = load ptr, ptr %builder, align 8
  %vfn7 = getelementptr inbounds i8, ptr %vtable6, i64 144
  %8 = load ptr, ptr %vfn7, align 8
  %call8 = tail call noundef i32 %8(ptr noundef nonnull align 8 dereferenceable(112) %builder, i8 noundef signext %4, i32 noundef %5, i32 noundef %sub)
  %offset = getelementptr inbounds i8, ptr %this, i64 12
  store i32 %call8, ptr %offset, align 4
  ret void
}